ccopy_reg
_reconstructor
p0
(cgoogle.oauth2.credentials
Credentials
p1
c__builtin__
object
p2
Ntp3
Rp4
(dp5
S'_token_uri'
p6
Vhttps://oauth2.googleapis.com/token
p7
sS'_client_secret'
p8
VsLJB3dsM5AZXiVG3K8ApLK9J
p9
sS'_id_token'
p10
NsS'token'
p11
Vya29.GlsHB1cW2rXKSju8k2JG_CoIgv0W2kZxzD0h22Ekn9k0rCAG8foMiDXYmUDHBfq5X2QyYAcIixRAMHf4oq3SvI15FeUKgjigAVt70fv8FNFVhkdooytirXAdVn4d
p12
sS'_refresh_token'
p13
V1/v21tOpitslxuubcC0sYtld39ze0nMS1088T5Eu9Tu_Y
p14
sS'_scopes'
p15
(lp16
S'https://www.googleapis.com/auth/spreadsheets.readonly'
p17
asS'_client_id'
p18
V258185812110-u0ai69geq9qhgi95md6mag7clvt6jk3c.apps.googleusercontent.com
p19
sS'expiry'
p20
cdatetime
datetime
p21
(S"\x07\xe3\x05\x0c\r\x15'\n\x93\x8a"
p22
tp23
Rp24
sb.